(dp0
S'superpeer_file'
p1
V./Tribler/Core/superpeer.txt
p2
sS'install_dir'
p3
V.
p4
sS'dispersy'
p5
I01
sS'internaltracker'
p6
I00
sS'tracker_only_local_override_ip'
p7
I2
sS'tracker_dfile_format'
p8
S'pickle'
p9
sS'tracker_aggregator'
p10
I0
sS'magnetlink'
p11
I01
sS'tracker_banned_ips'
p12
(lp13
sS'peer_icon_path'
p14
V/mtd_rwcommon/widgets/user/SamyGO/SamyGO/tribler/.tribler/icons
p15
sS'buddycast'
p16
I00
sS'tracker_show_names'
p17
I1
sS'puncturing_internal_port'
p18
I6700
sS'buddycast_collecting_solution'
p19
I1
sS'votecast_recent_votes'
p20
I25
sS'swiftpath'
p21
V./swift
p22
sS'tracker_allowed_dir'
p23
V/mtd_rwcommon/widgets/user/SamyGO/SamyGO/tribler/.tribler/itracker
p24
sS'stop_collecting_threshold'
p25
I200
sS'upnp_nat_access'
p26
I3
sS'family_filter'
p27
I01
sS'tracker_min_time_between_cache_refreshes'
p28
F600.0
sS'minport'
p29
I7760
sS'tracker_allowed_list'
p30
S''
p31
sS'tracker_dfile'
p32
V/mtd_rwcommon/widgets/user/SamyGO/SamyGO/tribler/.tribler/itracker/tracker.db
p33
sS'swifttunnelcmdgwlistenport'
p34
NsS'tracker_allowed_ips'
p35
(lp36
sS'swiftdlsperproc'
p37
I1000
sS'mainline_dht'
p38
I01
sS'tracker_multitracker_maxpeers'
p39
I20
sS'channelcast_recent_own_subscriptions'
p40
I13
sS'tracker_multitracker_allowed'
p41
S'autodetect'
p42
sS'votecast_random_votes'
p43
I25
sS'live_aux_seeders'
p44
(lp45
sS'tracker_multitracker_http_timeout'
p46
I60
sS'mugshot'
p47
NsS'dispersy-tunnel-over-swift'
p48
I00
sS'torrent_checking'
p49
I1
sS'tracker_socket_timeout'
p50
I15
sS'tracker_keep_dead'
p51
I0
sS'dialback_trust_superpeers'
p52
I01
sS'maxport'
p53
I7760
sS'proxy_default_dlcfg'
p54
NsS'subtitles_upload_rate'
p55
I1024
sS'tracker_hupmonitor'
p56
I0
sS'eckeypairfilename'
p57
V/mtd_rwcommon/widgets/user/SamyGO/SamyGO/tribler/.tribler/ec.pem
p58
sS'videoanalyserpath'
p59
S'ffmpeg'
p60
sS'multicast_local_peer_discovery'
p61
I00
sS'tracker_aggregate_forward'
p62
(lp63
NaNasS'tracker_url'
p64
NsS'timeout'
p65
F300.0
sS'socnet'
p66
I00
sS'tracker_min_time_between_log_flushes'
p67
F3.0
sS'tracker_allowed_controls'
p68
I0
sS'crawler'
p69
I0
sS'channelcast_random_own_subscriptions'
p70
I12
sS'dispersy_port'
p71
I6421
sS'ip'
p72
g31
sS'timeout_check_interval'
p73
F60.0
sS'dialback_active'
p74
I01
sS'swiftcmdlistenport'
p75
I8241
sS'tracker_timeout_downloaders_interval'
p76
I2700
sS'overlay_max_message_length'
p77
I8388608
sS'tracker_reannounce_interval'
p78
I1800
sS'dialback'
p79
I00
sS'tracker_infopage_redirect'
p80
NsS'proxyservice_dir'
p81
NsS'swiftproc'
p82
I00
sS'proxyservice_status'
p83
I0
sS'max_channel_query_results'
p84
I25
sS'state_dir'
p85
V/mtd_rwcommon/widgets/user/SamyGO/SamyGO/tribler/.tribler
p86
sS'tracker_multitracker_enabled'
p87
I0
sS'tracker_parse_dir_interval'
p88
I60
sS'overlay'
p89
I0
sS'rquery'
p90
I00
sS'tracker_timeout_check_interval'
p91
I5
sS'random_port'
p92
I1
sS'subtitles_collecting'
p93
I01
sS'nat_detect'
p94
I01
sS'superpeer'
p95
I00
sS'torrent_collecting'
p96
I00
sS'version'
p97
I2
sS'start_recommender'
p98
I01
sS'overlay_log'
p99
NsS'stun_servers'
p100
(lp101
(S'stun1.tribler.org'
p102
I6701
tp103
a(S'stun2.tribler.org'
p104
I6702
tp105
asS'ipv6_binds_v4'
p106
I0
sS'tracker_response_size'
p107
I50
sS'torrent_checking_period'
p108
I31
sS'buddycast_max_peers'
p109
I2500
sS'pingback_servers'
p110
(lp111
(S'pingback.tribler.org'
p112
I6703
tp113
a(S'pingback2.tribler.org'
p114
I6703
tp115
asS'swifttunnellistenport'
p116
NsS'tracker_nat_check'
p117
I3
sS'crawler_file'
p118
V./Tribler/Core/Statistics/crawler.txt
p119
sS'swifttunnelhttpgwlistenport'
p120
NsS'subtitles_collecting_dir'
p121
V/mtd_rwcommon/widgets/user/SamyGO/SamyGO/tribler/.tribler/collected_subtitles_files
p122
sS'megacache'
p123
I01
sS'tracker_save_dfile_interval'
p124
I300
sS'ipv6_enabled'
p125
I0
sS'nickname'
p126
g5
sS'tracker_allow_get'
p127
I1
sS'remote_search_empty_call'
p128
I01
sS'torrent_collecting_dir'
p129
V/mtd_rwcommon/widgets/user/SamyGO/SamyGO/tribler/.tribler/collected_torrent_files
p130
sS'tracker_scrape_allowed'
p131
S'full'
p132
sS'torrent_collecting_rate'
p133
I50
sS'torrent_collecting_max_torrents'
p134
I50000
sS'bind'
p135
(lp136
sS'tracker_multitracker_reannounce_interval'
p137
I120
sS'tracker_show_infopage'
p138
I1
sS'swiftworkingdir'
p139
S'.'
p140
sS'tracker_logfile'
p141
S'/dev/null'
p142
sS'buddycast_interval'
p143
I15
sS'tracker_log_nat_checks'
p144
I0
sS'tracker_favicon'
p145
NsS'bartercast'
p146
I00
s.